Certificate:
    Data:
        Version: 3 (0x2)
        Serial Number:
            39:2d:6f:3b:e4:74:2d:f8:fb:f6:13:4d:1b:80:47:2d
        Signature Algorithm: sha256WithRSAEncryption
        Issuer: C=US, O=thawte, Inc., CN=thawte SSL CA - G2
        Validity
            Not Before: Aug  7 00:00:00 2017 GMT
            Not After : Aug  6 23:59:59 2020 GMT
        Subject: C=CH, ST=Bern, L=Worblaufen, O=Swisscom (Schweiz) AG, OU=Wireless Data Access, CN=api.swisscom.com
        Subject Public Key Info:
            Public Key Algorithm: rsaEncryption
            RSA Public Key: (2048 bit)
                Modulus (2048 bit):
                    00:e3:7a:53:d1:68:ae:0d:3c:b3:45:05:9e:cc:cc:
                    22:a1:70:51:b2:6d:7e:db:8a:89:6e:64:fe:96:bd:
                    fc:90:8d:4e:fb:c0:1d:bf:b2:89:8e:7c:7f:b0:4c:
                    93:a2:21:84:db:48:bf:14:17:1b:7a:ce:e6:bc:8e:
                    06:6d:f1:78:cc:ae:5b:e1:31:c9:83:05:d4:94:f9:
                    67:8d:c8:c8:75:32:9a:09:13:ed:cd:4c:34:81:af:
                    31:62:a8:10:36:ae:86:38:8c:fb:66:9f:65:81:f6:
                    62:0d:83:0d:d3:74:22:a6:55:3d:64:f6:de:34:30:
                    0e:d8:3e:be:16:75:af:67:df:66:27:97:42:52:29:
                    76:ef:b8:f1:f4:c0:fe:c2:39:cb:3b:33:6a:a2:58:
                    c5:c2:ad:43:3d:9f:13:3f:69:51:40:ba:f7:e0:06:
                    cf:22:82:27:17:e9:69:63:fc:18:b2:f6:3f:a2:2b:
                    55:1d:c1:7c:76:54:31:06:b1:da:c3:e9:da:82:b7:
                    a6:d2:b9:e9:7f:17:82:95:50:1a:55:1f:ce:76:f6:
                    22:f2:b5:01:48:1f:2a:83:91:a6:c9:48:62:ae:cb:
                    21:ba:e9:00:11:bf:fc:e5:64:de:11:08:88:a7:61:
                    d5:d2:3c:c1:f7:00:0b:b8:41:0a:84:e3:04:0b:40:
                    7d:0d
                Exponent: 65537 (0x10001)
        X509v3 extensions:
            X509v3 Subject Alternative Name:
                DNS:*.api.swisscom.com, DNS:*.api.swisscom.ch, DNS:api.swisscom.ch, DNS:api.swisscom.com
            X509v3 Basic Constraints:
                CA:FALSE
            X509v3 Certificate Policies:
                Policy: 2.23.140.1.2.2
                  CPS: https://www.thawte.com/cps
                  User Notice:
                    Explicit Text: https://www.thawte.com/repository

            X509v3 Key Usage: critical
                Digital Signature, Key Encipherment
            X509v3 Authority Key Identifier:
                keyid:C2:4F:48:57:FC:D1:4F:9A:C0:5D:38:7D:0E:05:DB:D9:2E:B5:52:60

            X509v3 CRL Distribution Points:
                URI:http://tj.symcb.com/tj.crl

            X509v3 Extended Key Usage:
                TLS Web Server Authentication, TLS Web Client Authentication
            Authority Information Access:
                OCSP - URI:http://tj.symcd.com
                CA Issuers - URI:http://tj.symcb.com/tj.crt

            1.3.6.1.4.1.11129.2.4.2:
                .......v....+z
O. ....hp~.....\..=..........]..lW.....G0E. .4.6f..%%..A..,5...$.5...8.....1.!..3..tPYqc5s.....qDR...9....R.p...v.......X......gp
<5.......w...
.....]..l......G0E. ...8.i.K...Z\..b....B`.KX.V..*.0.!.........F.#..7q....A.,........H..v..K..u.`..Bi....f..~_.r....{.z......]..nX.....G0E. uBG.?..ig5......~.oy.."H..Q..@...!..
.a..%..~\._k.E'.)./..#..3....D.v..x....<hFI3M..._.yi ........>......]..m......G0E. .V.Xdb.G.W;.4...Ea..2.p..........!...[
.....}....`.R.B.......oZ.w.{
    Signature Algorithm: sha256WithRSAEncryption
        06:8b:05:a6:41:18:b8:50:89:a2:05:2e:88:10:77:0a:ce:4c:
        6c:70:9e:da:26:b9:cb:92:94:b3:44:c4:96:5d:0f:8d:34:b5:
        94:c3:5c:80:68:d1:15:da:5e:49:4d:05:3d:64:7e:03:30:0f:
        43:e4:50:e2:3e:9a:8a:52:04:8a:bb:85:41:d0:8c:b0:06:60:
        21:d1:20:8e:15:eb:38:36:81:ff:15:7b:74:bf:81:1c:37:7d:
        30:12:6b:c2:ca:d5:ed:77:ea:f1:be:2f:a0:d7:3f:0f:ef:11:
        4d:c0:17:96:69:a8:10:d4:24:ea:74:b1:19:7e:32:c8:fd:67:
        09:6f:c2:b4:de:90:ce:9f:8b:0f:9b:05:97:1d:10:6f:ea:46:
        be:8a:cb:b9:2f:bb:cf:53:7c:66:ca:36:e9:25:86:3b:b5:97:
        98:f0:bc:4c:10:b0:91:9d:f0:6b:ea:2c:3a:40:ae:82:31:8f:
        2b:43:09:ce:04:4f:d3:72:eb:bd:79:d4:03:ec:4f:67:5f:99:
        ad:a9:b9:66:f3:4e:92:b0:ab:f7:cc:ea:54:c7:6b:76:db:69:
        b2:e7:f5:9e:12:fb:e5:8f:1e:ec:0b:65:5b:41:ce:2c:43:52:
        c4:4c:0f:b1:7b:9c:87:92:25:ad:e9:9c:69:33:78:24:c2:3c:
        46:08:f6:72
-----BEGIN CERTIFICATE-----
MIIG/TCCBeWgAwIBAgIQOS1vO+R0Lfj79hNNG4BHLTANBgkqhkiG9w0BAQsFADBB
MQswCQYDVQQGEwJVUzEVMBMGA1UEChMMdGhhd3RlLCBJbmMuMRswGQYDVQQDExJ0
aGF3dGUgU1NMIENBIC0gRzIwHhcNMTcwODA3MDAwMDAwWhcNMjAwODA2MjM1OTU5
WjCBizELMAkGA1UEBhMCQ0gxDTALBgNVBAgMBEJlcm4xEzARBgNVBAcMCldvcmJs
YXVmZW4xHjAcBgNVBAoMFVN3aXNzY29tIChTY2h3ZWl6KSBBRzEdMBsGA1UECwwU
V2lyZWxlc3MgRGF0YSBBY2Nlc3MxGTAXBgNVBAMMEGFwaS5zd2lzc2NvbS5jb20w
ggEiMA0GCSqGSIb3DQEBAQUAA4IBDwAwggEKAoIBAQDjelPRaK4NPLNFBZ7MzCKh
cFGybX7bioluZP6WvfyQjU77wB2/somOfH+wTJOiIYTbSL8UFxt6zua8jgZt8XjM
rlvhMcmDBdSU+WeNyMh1MpoJE+3NTDSBrzFiqBA2roY4jPtmn2WB9mINgw3TdCKm
VT1k9t40MA7YPr4Wda9n32Ynl0JSKXbvuPH0wP7COcs7M2qiWMXCrUM9nxM/aVFA
uvfgBs8igicX6Wlj/Biy9j+iK1UdwXx2VDEGsdrD6dqCt6bSuel/F4KVUBpVH852
9iLytQFIHyqDkabJSGKuyyG66QARv/zlZN4RCIinYdXSPMH3AAu4QQqE4wQLQH0N
AgMBAAGjggOkMIIDoDBTBgNVHREETDBKghIqLmFwaS5zd2lzc2NvbS5jb22CESou
YXBpLnN3aXNzY29tLmNogg9hcGkuc3dpc3Njb20uY2iCEGFwaS5zd2lzc2NvbS5j
b20wCQYDVR0TBAIwADBuBgNVHSAEZzBlMGMGBmeBDAECAjBZMCYGCCsGAQUFBwIB
FhpodHRwczovL3d3dy50aGF3dGUuY29tL2NwczAvBggrBgEFBQcCAjAjDCFodHRw
czovL3d3dy50aGF3dGUuY29tL3JlcG9zaXRvcnkwDgYDVR0PAQH/BAQDAgWgMB8G
A1UdIwQYMBaAFMJPSFf80U+awF04fQ4F29kutVJgMCsGA1UdHwQkMCIwIKAeoByG
Gmh0dHA6Ly90ai5zeW1jYi5jb20vdGouY3JsMB0GA1UdJQQWMBQGCCsGAQUFBwMB
BggrBgEFBQcDAjBXBggrBgEFBQcBAQRLMEkwHwYIKwYBBQUHMAGGE2h0dHA6Ly90
ai5zeW1jZC5jb20wJgYIKwYBBQUHMAKGGmh0dHA6Ly90ai5zeW1jYi5jb20vdGou
Y3J0MIIB9gYKKwYBBAHWeQIEAgSCAeYEggHiAeAAdgDd6x0reg1PpiCLga2BaHB+
Lo6dAdVciI09EcTNtuy+zAAAAV28rGxXAAAEAwBHMEUCIBE08zZmqdYlJceGQR6U
LDWruZYk6jXdw5Y4qqSr+I8xAiEA9jMG7HRQWXFjNXPWzwcL/XFEUi6GHTkXHqLw
Uo9wls4AdgCkuQmQtBhYFIe7E6LMZ3AKPDWYBPkb37jjd80OyA3cEAAAAV28rGyR
AAAEAwBHMEUCIBYGlTgCaf5Lz/CjWlzd6mLEksjHQmDKS1idVoC2KqQwAiEAu5CZ
7xus1NpGoiMZgTdxl5f52UHcLIzgFZ7AFqqjSPUAdgDuS723dc5guuFCaR+r4Z5m
ow9+X7By2IMAxHuJeqj9ywAAAV28rG5YAAAEAwBHMEUCIHVCR+w/kpxpZzX0s9+f
C9N+oW95BY8iSMiNUdniQByYAiEA1Q2JYbwQJZujflyUX2vXRScIKc8v4IcjFAUz
ne7EzEQAdgC8eOHfxfY8aEZJM02hD6FfCXlpIAnAgbTz9pF/Ptm4pQAAAV28rG0C
AAAEAwBHMEUCIAZWCFhkYs1H8Vc7ozTW3ZlFYbXiMp1wAKy9f7IaEvrbAiEA2Jdb
DdWmw9eQfdAfFAZgrFKuQgLr9I2R4sRvWvJ323swDQYJKoZIhvcNAQELBQADggEB
AAaLBaZBGLhQiaIFLogQdwrOTGxwntomucuSlLNExJZdD400tZTDXIBo0RXaXklN
BT1kfgMwD0PkUOI+mopSBIq7hUHQjLAGYCHRII4V6zg2gf8Ve3S/gRw3fTASa8LK
1e136vG+L6DXPw/vEU3AF5ZpqBDUJOp0sRl+Msj9ZwlvwrTekM6fiw+bBZcdEG/q
Rr6Ky7kvu89TfGbKNuklhju1l5jwvEwQsJGd8GvqLDpAroIxjytDCc4ET9Ny6715
1APsT2dfma2puWbzTpKwq/fM6lTHa3bbabLn9Z4S++WPHuwLZVtBzixDUsRMD7F7
nIeSJa3pnGkzeCTCPEYI9nI=
-----END CERTIFICATE-----
