Certificate:
    Data:
        Version: 3 (0x2)
        Serial Number:
            60:5a:ac:f2:a3:3e:c8:4b:34:66:6c:36:ba:7e:59:b2:9b:c3:ac:85
    Signature Algorithm: sha256WithRSAEncryption
        Issuer: C=CH, O=SwissSign AG, CN=SwissSign Server Gold CA 2014 - G22
        Validity
            Not Before: Jul 13 12:24:14 2018 GMT
            Not After : Jul 13 12:24:14 2020 GMT
        Subject: C=CH, ST=Bern, L=Worblaufen, O=Swisscom (Schweiz) AG, OU=Wireless Data Access, CN=api.swisscom.com
        Subject Public Key Info:
            Public Key Algorithm: rsaEncryption
                Public-Key: (2048 bit)
                Modulus:
                    00:dd:52:ca:22:6e:85:9e:7d:97:0f:b3:14:93:56:
                    fc:b0:cb:71:9c:40:64:0d:f3:97:fa:d7:fb:a5:30:
                    90:b0:2f:f5:fb:c7:81:ff:83:2a:ac:bb:22:14:0e:
                    4f:15:43:a6:84:48:3c:d0:4c:56:f4:75:82:eb:0d:
                    36:63:61:21:b8:74:be:d4:41:7e:68:d1:f2:74:47:
                    39:05:91:87:26:15:3c:37:ad:bf:f9:f9:13:dd:c4:
                    4f:1f:63:91:e2:f1:ed:07:58:65:f4:61:49:43:32:
                    34:f9:fe:a2:63:90:a1:1c:f7:47:b5:e3:f0:d6:71:
                    ce:30:84:b1:23:f6:f0:6e:5a:31:1a:4e:0c:76:b7:
                    f1:94:68:3e:b1:4c:56:8c:93:08:00:38:59:b9:f8:
                    67:7c:18:f9:75:10:d8:bd:01:f6:1c:c3:48:c4:3a:
                    ae:85:bc:2e:03:ae:be:ee:2e:de:cd:03:4a:f9:e1:
                    29:80:92:ff:00:c0:73:e2:fb:37:6a:a5:db:15:09:
                    ee:6f:56:41:43:ec:9e:11:de:75:d2:b4:50:d5:b0:
                    a6:9e:47:ed:ef:7c:f7:da:31:be:2f:b5:f9:67:e3:
                    c0:98:96:d6:f8:75:c5:ee:dc:65:dd:14:83:bb:b9:
                    2c:7f:fa:5b:8b:a1:bb:2f:1d:42:8b:37:15:d3:18:
                    0a:97
                Exponent: 65537 (0x10001)
        X509v3 extensions:
            X509v3 Subject Alternative Name: 
                DNS:api.swisscom.com, DNS:api.swisscom.ch, DNS:*.api.swisscom.com, DNS:*.api.swisscom.ch, DNS:vimdzpsp-xsgz01.bluewin.ch, DNS:vimdzpsp-xsgo03.bluewin.ch
            X509v3 Key Usage: critical
                Digital Signature, Key Encipherment
            X509v3 Extended Key Usage: 
                TLS Web Server Authentication, TLS Web Client Authentication
            X509v3 Subject Key Identifier: 
                2A:11:8E:D0:41:2C:DC:9F:BF:48:BC:60:47:BC:9A:C1:3E:83:34:1A
            X509v3 Authority Key Identifier: 
                keyid:E7:F1:E7:FD:2E:53:AD:11:E5:81:1A:57:A4:73:8F:12:7D:98:C8:AE

            X509v3 CRL Distribution Points: 

                Full Name:
                  URI:http://crl.swisssign.net/E7F1E7FD2E53AD11E5811A57A4738F127D98C8AE

                Full Name:
                  URI:ldap://directory.swisssign.net/CN=E7F1E7FD2E53AD11E5811A57A4738F127D98C8AE%2CO=SwissSign%2CC=CH?certificateRevocationList?base?objectClass=cRLDistributionPoint

            X509v3 Certificate Policies: 
                Policy: 2.16.756.1.89.1.2.1.6
                  CPS: http://repository.swisssign.com/SwissSign-Gold-CP-CPS.pdf

            Authority Information Access: 
                CA Issuers - URI:http://swisssign.net/cgi-bin/authority/download/E7F1E7FD2E53AD11E5811A57A4738F127D98C8AE
                OCSP - URI:http://gold-server-g2.ocsp.swisssign.net/E7F1E7FD2E53AD11E5811A57A4738F127D98C8AE

            1.3.6.1.4.1.11129.2.4.2: 
                ...k.i.w.oSv.1.1.....Q..w.......).....7.....d..Q......H0F.!...L.z..gG....f.:....X.C.....!..k.!......f....E...r...[..QQ0.G.gtdJ..v....+zO. ....hp~.....\..=..........d..RL.....G0E.!....A...1.].5+......>.a.....EHt|.. &..?.u`.E..N)...`Bj..2M..)...`.M.v..K..u.`..Bi....f..~_.r....{.z......d..P......G0E.!..'9..;=i..Sg.q...N.|)x.c=.$Y..[.. GW...P.I#..p.7|.+......?.]......
    Signature Algorithm: sha256WithRSAEncryption
         84:1f:e6:68:48:dc:c2:6b:4c:0d:1b:90:4e:35:0f:9f:18:21:
         93:8d:35:49:e4:a2:a4:a2:69:29:cf:41:69:d2:52:01:1e:45:
         81:f3:bb:4c:23:a0:45:ed:36:59:76:b9:37:3f:14:ea:b9:71:
         d8:5a:81:d2:4c:ea:f8:86:19:eb:7f:4e:a8:cc:a3:72:a8:9b:
         43:55:94:06:0f:96:5e:8f:ee:74:a3:fa:33:3f:8f:c8:2e:97:
         6f:04:c6:b5:7e:94:a4:46:de:9c:af:ee:2c:ca:a2:41:f8:01:
         1b:8f:76:23:ef:6f:e4:83:6c:8c:c8:56:d9:68:e6:c3:74:e5:
         05:cd:c0:83:5e:0b:56:f8:b6:2f:af:b6:2f:b7:93:24:56:c3:
         27:d9:00:b1:3f:84:81:fc:5e:d0:0e:44:10:e5:91:86:9a:6f:
         4c:95:bb:08:ce:fb:c0:ef:0b:ff:28:fe:93:39:41:ab:21:7d:
         e4:a0:06:44:d3:56:21:20:b3:12:f9:9d:29:1f:3e:53:76:45:
         19:fc:e2:0d:0b:7d:c9:92:93:69:3e:e7:2c:d3:e3:b8:5c:5c:
         45:00:28:03:69:51:4c:c7:fb:54:e5:a8:af:ac:6b:7b:d6:f1:
         3e:ea:20:f4:bf:eb:8a:40:b8:72:79:7c:7f:d8:44:d2:c8:b9:
         2e:ca:75:09
-----BEGIN CERTIFICATE-----
MIIILzCCBxegAwIBAgIUYFqs8qM+yEs0Zmw2un5ZspvDrIUwDQYJKoZIhvcNAQEL
BQAwUjELMAkGA1UEBhMCQ0gxFTATBgNVBAoTDFN3aXNzU2lnbiBBRzEsMCoGA1UE
AxMjU3dpc3NTaWduIFNlcnZlciBHb2xkIENBIDIwMTQgLSBHMjIwHhcNMTgwNzEz
MTIyNDE0WhcNMjAwNzEzMTIyNDE0WjCBizELMAkGA1UEBhMCQ0gxDTALBgNVBAgT
BEJlcm4xEzARBgNVBAcTCldvcmJsYXVmZW4xHjAcBgNVBAoTFVN3aXNzY29tIChT
Y2h3ZWl6KSBBRzEdMBsGA1UECxMUV2lyZWxlc3MgRGF0YSBBY2Nlc3MxGTAXBgNV
BAMTEGFwaS5zd2lzc2NvbS5jb20wggEiMA0GCSqGSIb3DQEBAQUAA4IBDwAwggEK
AoIBAQDdUsoiboWefZcPsxSTVvywy3GcQGQN85f61/ulMJCwL/X7x4H/gyqsuyIU
Dk8VQ6aESDzQTFb0dYLrDTZjYSG4dL7UQX5o0fJ0RzkFkYcmFTw3rb/5+RPdxE8f
Y5Hi8e0HWGX0YUlDMjT5/qJjkKEc90e14/DWcc4whLEj9vBuWjEaTgx2t/GUaD6x
TFaMkwgAOFm5+Gd8GPl1ENi9AfYcw0jEOq6FvC4Drr7uLt7NA0r54SmAkv8AwHPi
+zdqpdsVCe5vVkFD7J4R3nXStFDVsKaeR+3vfPfaMb4vtfln48CYltb4dcXu3GXd
FIO7uSx/+luLobsvHUKLNxXTGAqXAgMBAAGjggTBMIIEvTCBjQYDVR0RBIGFMIGC
ghBhcGkuc3dpc3Njb20uY29tgg9hcGkuc3dpc3Njb20uY2iCEiouYXBpLnN3aXNz
Y29tLmNvbYIRKi5hcGkuc3dpc3Njb20uY2iCGnZpbWR6cHNwLXhzZ3owMS5ibHVl
d2luLmNoghp2aW1kenBzcC14c2dvMDMuYmx1ZXdpbi5jaDAOBgNVHQ8BAf8EBAMC
BaAwHQYDVR0lBBYwFAYIKwYBBQUHAwEGCCsGAQUFBwMCMB0GA1UdDgQWBBQqEY7Q
QSzcn79IvGBHvJrBPoM0GjAfBgNVHSMEGDAWgBTn8ef9LlOtEeWBGlekc48SfZjI
rjCB/wYDVR0fBIH3MIH0MEegRaBDhkFodHRwOi8vY3JsLnN3aXNzc2lnbi5uZXQv
RTdGMUU3RkQyRTUzQUQxMUU1ODExQTU3QTQ3MzhGMTI3RDk4QzhBRTCBqKCBpaCB
ooaBn2xkYXA6Ly9kaXJlY3Rvcnkuc3dpc3NzaWduLm5ldC9DTj1FN0YxRTdGRDJF
NTNBRDExRTU4MTFBNTdBNDczOEYxMjdEOThDOEFFJTJDTz1Td2lzc1NpZ24lMkND
PUNIP2NlcnRpZmljYXRlUmV2b2NhdGlvbkxpc3Q/YmFzZT9vYmplY3RDbGFzcz1j
UkxEaXN0cmlidXRpb25Qb2ludDBfBgNVHSAEWDBWMFQGCWCFdAFZAQIBBjBHMEUG
CCsGAQUFBwIBFjlodHRwOi8vcmVwb3NpdG9yeS5zd2lzc3NpZ24uY29tL1N3aXNz
U2lnbi1Hb2xkLUNQLUNQUy5wZGYwgdUGCCsGAQUFBwEBBIHIMIHFMGQGCCsGAQUF
BzAChlhodHRwOi8vc3dpc3NzaWduLm5ldC9jZ2ktYmluL2F1dGhvcml0eS9kb3du
bG9hZC9FN0YxRTdGRDJFNTNBRDExRTU4MTFBNTdBNDczOEYxMjdEOThDOEFFMF0G
CCsGAQUFBzABhlFodHRwOi8vZ29sZC1zZXJ2ZXItZzIub2NzcC5zd2lzc3NpZ24u
bmV0L0U3RjFFN0ZEMkU1M0FEMTFFNTgxMUE1N0E0NzM4RjEyN0Q5OEM4QUUwggF/
BgorBgEEAdZ5AgQCBIIBbwSCAWsBaQB3AG9Tdqwx8DEZ2JkApFEV/3cVHBHZAsEA
KQaNsgiaN9kTAAABZJOZUdwAAAQDAEgwRgIhAPHrTNV6DP9nR9TaxoZmHDr3q8Xx
WJ9Do5HHrBEhh4xrAiEA9O6hAKBmE8CfvEWsr71y6ZeUW7vkUVEw80cbZ3RkSpMA
dgDd6x0reg1PpiCLga2BaHB+Lo6dAdVciI09EcTNtuy+zAAAAWSTmVJMAAAEAwBH
MEUCIQDn/YFB29LfMRddrzUrwJHKGK8dPtBh65mwE9lFSHR8jwIgJtyBP8h1YKlF
97BOKYeOwmBCapDCMk3BBiku+8hgEk0AdgDuS723dc5guuFCaR+r4Z5mow9+X7By
2IMAxHuJeqj9ywAAAWSTmVCbAAAEAwBHMEUCIQDxJznP4zs9aQXDU2eXccYMp07H
fCl4B2M9ECRZsflbwgIgR1e6/wdQ00kjhB1w1Td8tSu2Fq4TuIU/HV34o5fPhZAw
DQYJKoZIhvcNAQELBQADggEBAIQf5mhI3MJrTA0bkE41D58YIZONNUnkoqSiaSnP
QWnSUgEeRYHzu0wjoEXtNll2uTc/FOq5cdhagdJM6viGGet/TqjMo3Kom0NVlAYP
ll6P7nSj+jM/j8gul28ExrV+lKRG3pyv7izKokH4ARuPdiPvb+SDbIzIVtlo5sN0
5QXNwINeC1b4ti+vti+3kyRWwyfZALE/hIH8XtAORBDlkYaab0yVuwjO+8DvC/8o
/pM5QashfeSgBkTTViEgsxL5nSkfPlN2RRn84g0LfcmSk2k+5yzT47hcXEUAKANp
UUzH+1TlqK+sa3vW8T7qIPS/64pAuHJ5fH/YRNLIuS7KdQk=
-----END CERTIFICATE-----
