Certificate:
    Data:
        Version: 3 (0x2)
        Serial Number:
            17:63:f8:3c:dc:e2:4f:e4:7a:e5:28:20:ae:4c:d2:cb
        Signature Algorithm: sha1WithRSAEncryption
        Issuer: C=US, O=Thawte, Inc., CN=Thawte SSL CA
        Validity
            Not Before: Mar 20 00:00:00 2013 GMT
            Not After : Mar 20 23:59:59 2014 GMT
        Subject: C=CH, ST=Biel, L=Biel, O=NTH AG, OU=Connectivity, CN=bulk.mobile-gw.com
        Subject Public Key Info:
            Public Key Algorithm: rsaEncryption
            RSA Public Key: (2048 bit)
                Modulus (2048 bit):
                    00:cb:82:e0:e0:b6:1b:5f:40:a7:94:9e:63:32:4c:
                    9f:75:35:40:6d:e5:fb:9e:2c:3a:d3:72:24:38:fc:
                    dc:f3:66:7a:fe:6e:ee:03:61:bd:f7:0e:e1:92:06:
                    8f:1c:df:f8:e5:a7:52:00:aa:f7:dd:b6:8d:b6:6b:
                    bd:79:45:ea:ad:7b:02:b6:5d:47:25:40:10:1a:8e:
                    0f:ca:35:4c:05:ee:50:09:4a:87:ea:1f:57:89:9f:
                    75:3b:64:41:ab:c3:3f:7a:11:16:e3:24:8e:16:43:
                    a6:b2:a3:12:75:9f:ba:f1:e2:49:86:2f:8b:f4:3d:
                    a4:ec:a4:75:91:61:40:46:d0:11:43:d1:d5:86:92:
                    6f:37:fa:91:bf:3d:7c:94:4b:1e:c1:f5:f4:98:d9:
                    43:78:95:a6:40:c9:79:c8:e4:b7:c6:d3:37:51:ff:
                    2e:31:ff:ec:91:6d:71:7b:70:31:90:0c:b1:f5:c0:
                    92:be:dd:fc:89:17:1d:32:ca:a4:20:66:5f:82:96:
                    31:38:11:14:02:c1:db:38:12:84:75:f9:ad:0f:bc:
                    20:4c:80:92:c3:a1:a8:96:2e:73:6c:22:b2:2f:1c:
                    84:8f:a4:7c:c4:84:c1:4a:94:9b:48:cd:83:6b:9c:
                    6f:0b:fe:f9:21:95:37:08:0c:37:86:e3:55:85:ea:
                    cd:ed
                Exponent: 65537 (0x10001)
        X509v3 extensions:
            X509v3 Subject Alternative Name:
                DNS:bulk.mobile-gw.com
            X509v3 Basic Constraints:
                CA:FALSE
            X509v3 Certificate Policies:
                Policy: 2.16.840.1.113733.1.7.54
                  CPS: https://www.thawte.com/cps/

            X509v3 Key Usage: critical
                Digital Signature, Key Encipherment
            X509v3 Authority Key Identifier:
                keyid:A7:A2:83:BB:34:45:40:3D:FC:D5:30:4F:12:B9:3E:A1:01:9F:F6:DB

            X509v3 CRL Distribution Points:
                URI:http://svr-ov-crl.thawte.com/ThawteOV.crl

            X509v3 Extended Key Usage:
                TLS Web Server Authentication, TLS Web Client Authentication
            Authority Information Access:
                OCSP - URI:http://ocsp.thawte.com
                CA Issuers - URI:http://svr-ov-aia.thawte.com/ThawteOV.cer

    Signature Algorithm: sha1WithRSAEncryption
        57:3c:1d:19:56:93:35:66:79:dc:c2:33:41:a9:ba:cd:91:f1:
        44:04:f5:6c:cf:42:a2:f3:7f:01:6f:4e:82:7d:50:85:a1:b6:
        fa:8a:a0:63:8c:44:c7:c4:57:14:f8:bc:3a:37:21:ba:dc:50:
        31:80:a2:11:02:47:5d:55:23:24:f4:66:7d:4f:6c:04:38:c3:
        d9:63:ce:b9:1a:1e:c5:78:c5:31:f6:0d:f5:f9:00:e0:db:ba:
        75:0f:b0:72:b3:18:ad:e3:73:76:cd:b5:fa:cf:38:bc:d9:a1:
        ee:01:9b:81:5a:12:b5:b4:c4:9b:d1:fa:9c:bb:aa:0d:8f:17:
        18:d3:5a:23:f7:3d:1d:da:af:2c:ea:9a:ab:3b:56:2a:5a:3b:
        73:2b:c5:b1:ff:b9:fb:b6:c6:ea:e0:0a:96:35:b0:88:7f:49:
        e7:18:c0:51:0e:ff:c9:b1:8f:9f:65:8b:c2:3d:a3:f0:05:cc:
        00:bb:cd:d4:c2:fa:25:ec:27:2f:3c:c0:03:f6:e2:42:16:fd:
        9d:5b:c2:ab:26:15:7a:9f:5b:27:32:09:93:5b:95:5e:1b:c8:
        0a:39:4f:7b:6b:cf:60:2b:16:be:bc:76:ed:0a:91:96:d3:71:
        71:8c:2f:15:6b:6b:83:5b:ed:17:c2:0a:44:ed:e4:a4:4d:45:
        9b:e5:0e:e8
-----BEGIN CERTIFICATE-----
MIIEoTCCA4mgAwIBAgIQF2P4PNziT+R65SggrkzSyzANBgkqhkiG9w0BAQUFADA8
MQswCQYDVQQGEwJVUzEVMBMGA1UEChMMVGhhd3RlLCBJbmMuMRYwFAYDVQQDEw1U
aGF3dGUgU1NMIENBMB4XDTEzMDMyMDAwMDAwMFoXDTE0MDMyMDIzNTk1OVowcDEL
MAkGA1UEBhMCQ0gxDTALBgNVBAgTBEJpZWwxDTALBgNVBAcUBEJpZWwxDzANBgNV
BAoUBk5USCBBRzEVMBMGA1UECxQMQ29ubmVjdGl2aXR5MRswGQYDVQQDFBJidWxr
Lm1vYmlsZS1ndy5jb20wggEiMA0GCSqGSIb3DQEBAQUAA4IBDwAwggEKAoIBAQDL
guDgthtfQKeUnmMyTJ91NUBt5fueLDrTciQ4/NzzZnr+bu4DYb33DuGSBo8c3/jl
p1IAqvfdto22a715ReqtewK2XUclQBAajg/KNUwF7lAJSofqH1eJn3U7ZEGrwz96
ERbjJI4WQ6ayoxJ1n7rx4kmGL4v0PaTspHWRYUBG0BFD0dWGkm83+pG/PXyUSx7B
9fSY2UN4laZAyXnI5LfG0zdR/y4x/+yRbXF7cDGQDLH1wJK+3fyJFx0yyqQgZl+C
ljE4ERQCwds4EoR1+a0PvCBMgJLDoaiWLnNsIrIvHISPpHzEhMFKlJtIzYNrnG8L
/vkhlTcIDDeG41WF6s3tAgMBAAGjggFpMIIBZTAdBgNVHREEFjAUghJidWxrLm1v
YmlsZS1ndy5jb20wCQYDVR0TBAIwADBCBgNVHSAEOzA5MDcGCmCGSAGG+EUBBzYw
KTAnBggrBgEFBQcCARYbaHR0cHM6Ly93d3cudGhhd3RlLmNvbS9jcHMvMA4GA1Ud
DwEB/wQEAwIFoDAfBgNVHSMEGDAWgBSnooO7NEVAPfzVME8SuT6hAZ/22zA6BgNV
HR8EMzAxMC+gLaArhilodHRwOi8vc3ZyLW92LWNybC50aGF3dGUuY29tL1RoYXd0
ZU9WLmNybDAdBgNVHSUEFjAUBggrBgEFBQcDAQYIKwYBBQUHAwIwaQYIKwYBBQUH
AQEEXTBbMCIGCCsGAQUFBzABhhZodHRwOi8vb2NzcC50aGF3dGUuY29tMDUGCCsG
AQUFBzAChilodHRwOi8vc3ZyLW92LWFpYS50aGF3dGUuY29tL1RoYXd0ZU9WLmNl
cjANBgkqhkiG9w0BAQUFAAOCAQEAVzwdGVaTNWZ53MIzQam6zZHxRAT1bM9CovN/
AW9Ogn1QhaG2+oqgY4xEx8RXFPi8OjchutxQMYCiEQJHXVUjJPRmfU9sBDjD2WPO
uRoexXjFMfYN9fkA4Nu6dQ+wcrMYreNzds21+s84vNmh7gGbgVoStbTEm9H6nLuq
DY8XGNNaI/c9HdqvLOqaqztWKlo7cyvFsf+5+7bG6uAKljWwiH9J5xjAUQ7/ybGP
n2WLwj2j8AXMALvN1ML6JewnLzzAA/biQhb9nVvCqyYVep9bJzIJk1uVXhvICjlP
e2vPYCsWvrx27QqRltNxcYwvFWtrg1vtF8IKRO3kpE1Fm+UO6A==
-----END CERTIFICATE-----
