Certificate:
    Data:
        Version: 3 (0x2)
        Serial Number:
            5d:b1:18:24:b0:85:61:d6:98:40:be:85:dd:a2:ad:fa
        Signature Algorithm: sha256WithRSAEncryption
        Issuer: C=US, O=thawte, Inc., CN=thawte SSL CA - G2
        Validity
            Not Before: Feb  3 00:00:00 2016 GMT
            Not After : Feb  2 23:59:59 2019 GMT
        Subject: C=CH, ST=Biel, L=Biel, O=NTH AG, CN=*.mobile-gw.com
        Subject Public Key Info:
            Public Key Algorithm: rsaEncryption
            RSA Public Key: (2048 bit)
                Modulus (2048 bit):
                    00:f0:85:d6:fe:aa:b0:05:81:3b:21:0a:5d:65:88:
                    f9:fc:d0:4f:00:d4:11:eb:8e:a2:f4:a9:7e:52:8d:
                    22:12:d4:5a:ff:1c:3b:f6:e8:74:30:6f:32:75:02:
                    b1:92:ce:d1:24:06:75:00:46:38:a8:97:17:4d:61:
                    d0:7f:e6:01:18:6e:14:d9:68:65:fc:f8:ee:4f:35:
                    31:2e:9d:bd:7c:6e:87:89:1d:c9:c6:b7:f1:09:9a:
                    22:1d:ce:b9:7a:9f:46:27:98:1d:d5:e2:7e:f6:2b:
                    0b:b6:c0:ef:92:20:c3:dc:d0:a4:65:f0:f6:32:d8:
                    90:f5:c0:14:95:7f:2a:f8:ca:c2:06:1a:63:3d:81:
                    5f:de:c2:9a:d7:27:69:e0:58:0d:da:90:11:86:97:
                    d3:04:a6:e6:4e:6b:25:77:02:4c:c3:65:5e:50:f2:
                    38:18:cc:40:cc:3c:77:9c:5f:79:ce:57:14:89:17:
                    f5:00:95:7b:e1:bd:be:e0:fb:2c:c2:e6:b2:89:1c:
                    d3:17:30:17:91:bb:c5:2b:f7:df:e9:79:86:94:a7:
                    21:c8:15:73:d8:af:1d:ca:5c:bd:b3:ed:ba:19:c1:
                    4a:11:e6:5a:9f:ca:f0:7e:d4:0b:bd:8c:e8:40:be:
                    a8:63:ad:66:8f:c1:72:c3:4f:65:c2:e6:f2:13:65:
                    c5:4b
                Exponent: 65537 (0x10001)
        X509v3 extensions:
            X509v3 Subject Alternative Name:
                DNS:*.mobile-gw.com, DNS:mobile-gw.com
            X509v3 Basic Constraints:
                CA:FALSE
            X509v3 Certificate Policies:
                Policy: 2.23.140.1.2.2
                  CPS: https://www.thawte.com/cps
                  User Notice:
                    Explicit Text: https://www.thawte.com/repository

            X509v3 Key Usage: critical
                Digital Signature, Key Encipherment
            X509v3 Authority Key Identifier:
                keyid:C2:4F:48:57:FC:D1:4F:9A:C0:5D:38:7D:0E:05:DB:D9:2E:B5:52:60

            X509v3 CRL Distribution Points:
                URI:http://tj.symcb.com/tj.crl

            X509v3 Extended Key Usage:
                TLS Web Server Authentication, TLS Web Client Authentication
            Authority Information Access:
                OCSP - URI:http://tj.symcd.com
                CA Issuers - URI:http://tj.symcb.com/tj.crt

    Signature Algorithm: sha256WithRSAEncryption
        89:48:ab:9d:2d:ba:b8:55:e3:75:dd:0d:26:c8:89:e9:bd:80:
        8e:9b:f6:f6:d5:8f:eb:81:ff:c6:bd:ba:9d:69:f5:76:e9:45:
        d2:d8:13:6e:79:ba:37:ec:3e:a1:cb:e8:ce:65:28:1c:3e:57:
        1f:e3:15:83:d1:ce:97:89:1b:4f:5b:46:48:6b:de:52:3c:3b:
        c5:0d:25:1e:11:04:d6:fc:84:e7:cd:bd:e0:82:96:0d:9f:5f:
        04:14:c7:75:db:8c:29:c5:bb:cd:16:7f:de:55:e8:c8:f7:95:
        b7:f6:19:f1:96:e1:ad:21:50:90:8d:b1:dc:3c:ad:79:4c:bf:
        41:d6:da:24:8b:92:f1:41:1c:97:bd:66:56:70:8c:09:50:d8:
        d3:75:59:92:8f:c7:1c:42:22:cf:ac:c0:59:63:92:21:f8:53:
        e3:01:c7:69:90:10:5a:2e:45:24:51:d4:a6:a9:f3:84:bd:14:
        ff:6f:85:fe:f5:59:69:f6:a4:18:68:40:86:9d:1e:ee:99:51:
        98:f8:11:88:ac:66:ad:b1:e0:e0:cc:c9:da:b2:c6:ed:01:67:
        62:17:ba:0e:83:7f:38:fa:77:94:31:32:7c:af:2d:3f:26:20:
        83:96:85:ad:8d:b8:cb:5e:d4:04:b1:f8:de:5f:e7:19:20:13:
        69:23:2f:7e

-----BEGIN CERTIFICATE-----
MIIGnDCCBYSgAwIBAgIQXbEYJLCFYdaYQL6F3aKt+jANBgkqhkiG9w0BAQsFADBB
MQswCQYDVQQGEwJVUzEVMBMGA1UEChMMdGhhd3RlLCBJbmMuMRswGQYDVQQDExJ0
aGF3dGUgU1NMIENBIC0gRzIwHhcNMTYwMjAzMDAwMDAwWhcNMTkwMjAyMjM1OTU5
WjBWMQswCQYDVQQGEwJDSDENMAsGA1UECAwEQmllbDENMAsGA1UEBwwEQmllbDEP
MA0GA1UECgwGTlRIIEFHMRgwFgYDVQQDDA8qLm1vYmlsZS1ndy5jb20wggEiMA0G
CSqGSIb3DQEBAQUAA4IBDwAwggEKAoIBAQDwhdb+qrAFgTshCl1liPn80E8A1BHr
jqL0qX5SjSIS1Fr/HDv26HQwbzJ1ArGSztEkBnUARjiolxdNYdB/5gEYbhTZaGX8
+O5PNTEunb18boeJHcnGt/EJmiIdzrl6n0YnmB3V4n72Kwu2wO+SIMPc0KRl8PYy
2JD1wBSVfyr4ysIGGmM9gV/ewprXJ2ngWA3akBGGl9MEpuZOayV3AkzDZV5Q8jgY
zEDMPHecX3nOVxSJF/UAlXvhvb7g+yzC5rKJHNMXMBeRu8Ur99/peYaUpyHIFXPY
rx3KXL2z7boZwUoR5lqfyvB+1Au9jOhAvqhjrWaPwXLDT2XC5vITZcVLAgMBAAGj
ggN5MIIDdTApBgNVHREEIjAggg8qLm1vYmlsZS1ndy5jb22CDW1vYmlsZS1ndy5j
b20wCQYDVR0TBAIwADBuBgNVHSAEZzBlMGMGBmeBDAECAjBZMCYGCCsGAQUFBwIB
FhpodHRwczovL3d3dy50aGF3dGUuY29tL2NwczAvBggrBgEFBQcCAjAjDCFodHRw
czovL3d3dy50aGF3dGUuY29tL3JlcG9zaXRvcnkwDgYDVR0PAQH/BAQDAgWgMB8G
A1UdIwQYMBaAFMJPSFf80U+awF04fQ4F29kutVJgMCsGA1UdHwQkMCIwIKAeoByG
Gmh0dHA6Ly90ai5zeW1jYi5jb20vdGouY3JsMB0GA1UdJQQWMBQGCCsGAQUFBwMB
BggrBgEFBQcDAjBXBggrBgEFBQcBAQRLMEkwHwYIKwYBBQUHMAGGE2h0dHA6Ly90
ai5zeW1jZC5jb20wJgYIKwYBBQUHMAKGGmh0dHA6Ly90ai5zeW1jYi5jb20vdGou
Y3J0MIIB9QYKKwYBBAHWeQIEAgSCAeUEggHhAd8AdQDd6x0reg1PpiCLga2BaHB+
Lo6dAdVciI09EcTNtuy+zAAAAVKmYNGgAAAEAwBGMEQCICEff8v1whmEcVtS9NvG
Gf8ADJNiNhvxqRF2GKHVz1xmAiBhrK8hWew6Mm8eGiK9C/Ng4dVfkB02v7LBHAng
r/n4wAB2AKS5CZC0GFgUh7sTosxncAo8NZgE+RvfuON3zQ7IDdwQAAABUqZg0dgA
AAQDAEcwRQIgURV5Nsr/ywy1HODZG079z603p0nicJwGrHrpWeeUuu0CIQDhw82F
RbGA5ulPadFoYCXJZAF6Lu9h3eG0jaqNsNUgxQB2AGj2mPgfZIK+OozuuSgdTPxx
UV1nk9RE0QpnrLtPT/vEAAABUqZg0dcAAAQDAEcwRQIgVf9hp30TKcEOjJu8lFEz
uc8LuL0xV3BOIQaLtT/kKkgCIQDpZ5jOj2p1tamrJRf/tSyX7v6+DKKRnsfdMoiC
V3I2uAB2AO5Lvbd1zmC64UJpH6vhnmajD35fsHLYgwDEe4l6qP3LAAABUqZg06AA
AAQDAEcwRQIhAM5fmYR2CsP2p+RydqVoWTYnrRnIsEEk1d+gqQ28T4T7AiB6dDfW
hGcbubfGhicI4XUwqq/jasCJi7RrS8qoCq+o1DANBgkqhkiG9w0BAQsFAAOCAQEA
iUirnS26uFXjdd0NJsiJ6b2Ajpv29tWP64H/xr26nWn1dulF0tgTbnm6N+w+ocvo
zmUoHD5XH+MVg9HOl4kbT1tGSGveUjw7xQ0lHhEE1vyE58294IKWDZ9fBBTHdduM
KcW7zRZ/3lXoyPeVt/YZ8ZbhrSFQkI2x3DyteUy/QdbaJIuS8UEcl71mVnCMCVDY
03VZko/HHEIiz6zAWWOSIfhT4wHHaZAQWi5FJFHUpqnzhL0U/2+F/vVZafakGGhA
hp0e7plRmPgRiKxmrbHg4MzJ2rLG7QFnYhe6DoN/OPp3lDEyfK8tPyYgg5aFrY24
y17UBLH43l/nGSATaSMvfg==
-----END CERTIFICATE-----
