Certificate:
    Data:
        Version: 3 (0x2)
        Serial Number:
            49:7d:ec:fe:9b:e3:53:0d:dc:0f:ba:f7:c4:8f:b7:79
        Signature Algorithm: sha1WithRSAEncryption
        Issuer: C=US, O=Thawte, Inc., CN=Thawte SSL CA
        Validity
            Not Before: Jan 15 00:00:00 2014 GMT
            Not After : Mar 19 23:59:59 2016 GMT
        Subject: C=CH, ST=Biel, L=Biel, O=NTH AG, CN=bulk.mobile-gw.com
        Subject Public Key Info:
            Public Key Algorithm: rsaEncryption
            RSA Public Key: (2048 bit)
                Modulus (2048 bit):
                    00:f5:d8:2b:43:73:e4:68:4d:3d:70:45:0b:d2:3e:
                    2e:de:ef:f3:38:47:87:e4:fa:37:b7:6e:45:0b:e4:
                    00:01:f6:8f:dc:64:54:36:19:b1:b0:84:dc:2e:24:
                    2d:cd:61:86:ac:87:7b:57:52:31:85:2a:f7:e1:78:
                    1c:db:20:2e:c2:34:ed:44:de:1e:87:89:b2:b9:d7:
                    e6:a2:da:48:a3:db:a0:03:3a:44:42:71:2e:6f:5b:
                    e6:09:23:07:28:e3:cf:a6:04:d1:e5:bb:cf:fa:5e:
                    52:b5:45:64:80:c6:22:58:1e:62:25:39:81:f5:d9:
                    ef:2e:31:1e:68:64:99:b1:32:83:e0:5d:40:98:31:
                    9a:1d:f8:b9:9e:cb:c2:14:6d:8e:b6:7b:c0:a4:12:
                    ae:e8:1b:20:2b:ba:78:52:5e:e2:be:ba:4e:41:06:
                    87:be:56:a2:5b:cc:14:83:ad:0d:86:14:4e:46:f4:
                    0a:b9:35:57:64:18:df:34:40:60:7c:ff:eb:16:d5:
                    d5:d1:08:01:85:82:cc:b5:77:34:a5:cc:6d:02:60:
                    97:0e:b2:a0:4d:50:bd:8e:ab:14:92:68:ea:78:61:
                    70:9e:8d:65:30:f7:06:fe:5c:15:f7:d5:c4:a5:0f:
                    c0:a9:26:89:57:bb:41:f4:f9:d6:1b:54:1f:2c:0d:
                    88:6d
                Exponent: 65537 (0x10001)
        X509v3 extensions:
            X509v3 Subject Alternative Name: 
                DNS:bulk.mobile-gw.com
            X509v3 Basic Constraints: 
                CA:FALSE
            X509v3 Certificate Policies: 
                Policy: 2.16.840.1.113733.1.7.54
                  CPS: https://www.thawte.com/cps/

            X509v3 Key Usage: critical
                Digital Signature, Key Encipherment
            X509v3 Authority Key Identifier: 
                keyid:A7:A2:83:BB:34:45:40:3D:FC:D5:30:4F:12:B9:3E:A1:01:9F:F6:DB

            X509v3 CRL Distribution Points: 
                URI:http://svr-ov-crl.thawte.com/ThawteOV.crl

            X509v3 Extended Key Usage: 
                TLS Web Server Authentication, TLS Web Client Authentication
            Authority Information Access: 
                OCSP - URI:http://ocsp.thawte.com
                CA Issuers - URI:http://svr-ov-aia.thawte.com/ThawteOV.cer

    Signature Algorithm: sha1WithRSAEncryption
        98:cc:b7:c8:3c:24:cf:88:3a:fb:81:df:24:cc:3d:a0:1c:4e:
        49:48:cd:ce:8d:81:13:bc:f1:72:fa:c5:ad:c4:86:f5:f9:e5:
        91:38:6a:04:3f:61:ad:a8:3b:4b:ff:e6:38:63:30:c9:d3:08:
        ec:90:ed:e1:c1:c1:76:30:91:aa:58:87:b8:f7:f3:39:b1:d5:
        66:6e:0a:cb:21:62:de:90:ff:98:5d:9b:e7:20:66:95:6b:cb:
        08:51:43:66:39:31:4f:43:45:2e:b0:54:6c:96:59:1e:c9:9d:
        d2:76:98:e2:a6:df:1c:d0:64:2e:97:5c:26:e3:f7:9b:34:2c:
        92:48:09:c4:09:0c:af:99:74:20:d1:40:e5:8b:9e:cd:a8:da:
        87:d2:25:1e:7a:88:3c:91:34:05:3f:d6:ba:bd:39:97:4c:b4:
        53:87:85:aa:8c:5d:9e:79:ae:e7:09:c7:4d:e2:cc:bc:01:3f:
        ee:9f:e0:4b:29:48:22:64:d4:fc:6e:0d:91:ed:09:c7:86:c6:
        bb:7c:5f:ab:d6:69:64:52:3c:70:13:25:04:7c:fc:73:aa:ea:
        9d:41:c4:e9:a3:41:8b:77:68:63:80:1c:16:f6:db:b4:eb:6d:
        89:c2:94:e6:ae:13:e3:7d:f1:2b:62:87:2e:d4:bb:22:e0:2d:
        06:61:c7:09
-----BEGIN CERTIFICATE-----
MIIEijCCA3KgAwIBAgIQSX3s/pvjUw3cD7r3xI+3eTANBgkqhkiG9w0BAQUFADA8
MQswCQYDVQQGEwJVUzEVMBMGA1UEChMMVGhhd3RlLCBJbmMuMRYwFAYDVQQDEw1U
aGF3dGUgU1NMIENBMB4XDTE0MDExNTAwMDAwMFoXDTE2MDMxOTIzNTk1OVowWTEL
MAkGA1UEBhMCQ0gxDTALBgNVBAgTBEJpZWwxDTALBgNVBAcUBEJpZWwxDzANBgNV
BAoUBk5USCBBRzEbMBkGA1UEAxQSYnVsay5tb2JpbGUtZ3cuY29tMIIBIjANBgkq
hkiG9w0BAQEFAAOCAQ8AMIIBCgKCAQEA9dgrQ3PkaE09cEUL0j4u3u/zOEeH5Po3
t25FC+QAAfaP3GRUNhmxsITcLiQtzWGGrId7V1IxhSr34Xgc2yAuwjTtRN4eh4my
udfmotpIo9ugAzpEQnEub1vmCSMHKOPPpgTR5bvP+l5StUVkgMYiWB5iJTmB9dnv
LjEeaGSZsTKD4F1AmDGaHfi5nsvCFG2OtnvApBKu6BsgK7p4Ul7ivrpOQQaHvlai
W8wUg60NhhRORvQKuTVXZBjfNEBgfP/rFtXV0QgBhYLMtXc0pcxtAmCXDrKgTVC9
jqsUkmjqeGFwno1lMPcG/lwV99XEpQ/AqSaJV7tB9PnWG1QfLA2IbQIDAQABo4IB
aTCCAWUwHQYDVR0RBBYwFIISYnVsay5tb2JpbGUtZ3cuY29tMAkGA1UdEwQCMAAw
QgYDVR0gBDswOTA3BgpghkgBhvhFAQc2MCkwJwYIKwYBBQUHAgEWG2h0dHBzOi8v
d3d3LnRoYXd0ZS5jb20vY3BzLzAOBgNVHQ8BAf8EBAMCBaAwHwYDVR0jBBgwFoAU
p6KDuzRFQD381TBPErk+oQGf9tswOgYDVR0fBDMwMTAvoC2gK4YpaHR0cDovL3N2
ci1vdi1jcmwudGhhd3RlLmNvbS9UaGF3dGVPVi5jcmwwHQYDVR0lBBYwFAYIKwYB
BQUHAwEGCCsGAQUFBwMCMGkGCCsGAQUFBwEBBF0wWzAiBggrBgEFBQcwAYYWaHR0
cDovL29jc3AudGhhd3RlLmNvbTA1BggrBgEFBQcwAoYpaHR0cDovL3N2ci1vdi1h
aWEudGhhd3RlLmNvbS9UaGF3dGVPVi5jZXIwDQYJKoZIhvcNAQEFBQADggEBAJjM
t8g8JM+IOvuB3yTMPaAcTklIzc6NgRO88XL6xa3EhvX55ZE4agQ/Ya2oO0v/5jhj
MMnTCOyQ7eHBwXYwkapYh7j38zmx1WZuCsshYt6Q/5hdm+cgZpVrywhRQ2Y5MU9D
RS6wVGyWWR7JndJ2mOKm3xzQZC6XXCbj95s0LJJICcQJDK+ZdCDRQOWLns2o2ofS
JR56iDyRNAU/1rq9OZdMtFOHhaqMXZ55rucJx03izLwBP+6f4EspSCJk1PxuDZHt
CceGxrt8X6vWaWRSPHATJQR8/HOq6p1BxOmjQYt3aGOAHBb227TrbYnClOauE+N9
8Stihy7UuyLgLQZhxwk=
-----END CERTIFICATE-----
