Certificate:
    Data:
        Version: 3 (0x2)
        Serial Number:
            0b:84:0a:9e:d3:19:c3:53:e0:75:39:f7:fc:bd:d4:d9
    Signature Algorithm: sha256WithRSAEncryption
        Issuer: C=US, O=DigiCert Inc, OU=www.digicert.com, CN=Thawte RSA CA 2018
        Validity
            Not Before: Mar 16 00:00:00 2018 GMT
            Not After : Feb  2 12:00:00 2019 GMT
        Subject: C=CH, ST=Bern, L=Bern, O=NTH AG, CN=*.mobile-gw.com
        Subject Public Key Info:
            Public Key Algorithm: rsaEncryption
                Public-Key: (2048 bit)
                Modulus:
                    00:b1:2f:46:f2:92:e9:d3:a6:de:0f:b1:07:bb:6d:
                    ad:4d:e3:d5:d6:06:3b:f9:91:fb:86:a3:aa:80:d4:
                    ad:12:d1:04:70:0a:24:ec:1f:b8:70:a5:a5:13:fc:
                    5e:74:13:4f:f6:cf:0d:5f:8c:2b:72:26:bc:34:6e:
                    9e:77:d6:6b:39:c6:e7:42:f2:5d:b3:3e:79:06:47:
                    72:07:a5:56:d7:fe:cf:a9:97:a8:de:19:80:e2:83:
                    fb:9c:2d:31:ee:84:f8:71:f3:5a:c1:75:74:4c:70:
                    aa:09:00:77:85:07:aa:5b:9c:a7:aa:06:62:10:82:
                    fb:f7:2f:93:63:1a:53:cd:f3:90:b0:43:20:ee:ce:
                    71:24:35:c6:f1:28:a7:7f:7c:a3:5c:c8:34:ff:c7:
                    79:de:fe:e6:96:3e:a0:00:bd:17:fc:8e:a0:d3:3b:
                    30:58:12:05:50:6d:ca:19:22:c3:6c:11:e7:1a:6a:
                    34:a3:e8:e0:87:58:44:f3:bb:e3:ba:cf:27:c0:2a:
                    d8:e6:dd:29:e1:88:3d:be:23:7c:00:8f:6a:93:e1:
                    bb:69:b7:ce:be:fa:46:51:2d:22:dd:ce:ff:25:8b:
                    ae:e7:66:9e:6c:87:30:ed:2e:0e:fe:8d:24:8a:55:
                    19:ca:54:d5:b7:0e:02:3b:eb:91:e4:24:d4:b6:a9:
                    e8:5f
                Exponent: 65537 (0x10001)
        X509v3 extensions:
            X509v3 Authority Key Identifier:
                keyid:A3:C8:5E:65:54:E5:30:78:C1:05:EA:07:0A:6A:59:CC:B9:FE:DE:5A

            X509v3 Subject Key Identifier:
                37:3A:E2:D1:2B:AE:F1:7C:ED:22:91:0B:92:71:BD:BD:CA:D1:77:61
            X509v3 Subject Alternative Name:
                DNS:*.mobile-gw.com, DNS:mobile-gw.com
            X509v3 Key Usage: critical
                Digital Signature, Key Encipherment
            X509v3 Extended Key Usage:
                TLS Web Server Authentication, TLS Web Client Authentication
            X509v3 CRL Distribution Points:

                Full Name:
                  URI:http://cdp.thawte.com/ThawteRSACA2018.crl

            X509v3 Certificate Policies:
                Policy: 2.16.840.1.114412.1.1
                  CPS: https://www.digicert.com/CPS
                Policy: 2.23.140.1.2.2

            Authority Information Access:
                OCSP - URI:http://status.thawte.com
                CA Issuers - URI:http://cacerts.thawte.com/ThawteRSACA2018.crt

            X509v3 Basic Constraints:
                CA:FALSE
    Signature Algorithm: sha256WithRSAEncryption
         81:2c:4c:77:51:54:9e:15:0e:30:2c:a1:dd:38:61:9d:b1:f2:
         62:74:ca:28:4d:3f:3c:04:c8:7f:69:9a:b6:c8:b6:31:0e:42:
         6a:c4:f1:2a:e7:7c:ba:93:30:38:b6:54:6b:f2:07:fa:c1:52:
         57:9f:25:28:b4:e2:02:ac:cc:08:b6:fb:56:99:5f:10:76:35:
         db:09:31:ff:12:f3:b5:41:73:a6:33:fa:80:43:76:7f:80:68:
         61:5e:34:25:50:d7:e3:81:34:9b:50:5a:58:0a:fd:b7:d0:9d:
         1d:57:eb:2e:84:a4:ee:88:56:f4:d4:f6:ea:2d:5c:30:b3:a8:
         6d:95:f6:8c:d5:fb:d9:e6:d8:4e:60:a4:ad:0c:38:1b:7e:1d:
         da:78:03:c0:3e:37:5a:f2:b0:48:a3:ba:d9:68:6a:6c:b1:31:
         b9:ff:06:62:2e:cd:d3:e8:fa:36:d7:db:fc:cd:3c:33:7a:87:
         c0:d9:9d:16:f0:71:3a:5b:e2:39:8b:41:80:6d:da:19:68:ab:
         3f:30:88:83:e4:1b:05:52:20:d2:4b:cd:41:51:73:72:85:80:
         df:59:a2:9e:12:8b:b1:f6:4a:9a:41:e3:c9:b7:28:3f:79:19:
         14:e7:8f:aa:04:4c:f5:34:ba:47:41:61:4c:f3:08:57:93:24:
         d9:8e:eb:d9
-----BEGIN CERTIFICATE-----
MIIF6jCCBNKgAwIBAgIQC4QKntMZw1PgdTn3/L3U2TANBgkqhkiG9w0BAQsFADBc
MQswCQYDVQQGEwJVUzEVMBMGA1UEChMMRGlnaUNlcnQgSW5jMRkwFwYDVQQLExB3
d3cuZGlnaWNlcnQuY29tMRswGQYDVQQDExJUaGF3dGUgUlNBIENBIDIwMTgwHhcN
MTgwMzE2MDAwMDAwWhcNMTkwMjAyMTIwMDAwWjBWMQswCQYDVQQGEwJDSDENMAsG
A1UECBMEQmVybjENMAsGA1UEBxMEQmVybjEPMA0GA1UEChMGTlRIIEFHMRgwFgYD
VQQDDA8qLm1vYmlsZS1ndy5jb20wggEiMA0GCSqGSIb3DQEBAQUAA4IBDwAwggEK
AoIBAQCxL0bykunTpt4PsQe7ba1N49XWBjv5kfuGo6qA1K0S0QRwCiTsH7hwpaUT
/F50E0/2zw1fjCtyJrw0bp531ms5xudC8l2zPnkGR3IHpVbX/s+pl6jeGYDig/uc
LTHuhPhx81rBdXRMcKoJAHeFB6pbnKeqBmIQgvv3L5NjGlPN85CwQyDuznEkNcbx
KKd/fKNcyDT/x3ne/uaWPqAAvRf8jqDTOzBYEgVQbcoZIsNsEecaajSj6OCHWETz
u+O6zyfAKtjm3SnhiD2+I3wAj2qT4btpt86++kZRLSLdzv8li67nZp5shzDtLg7+
jSSKVRnKVNW3DgI765HkJNS2qehfAgMBAAGjggKsMIICqDAfBgNVHSMEGDAWgBSj
yF5lVOUweMEF6gcKalnMuf7eWjAdBgNVHQ4EFgQUNzri0Suu8XztIpELknG9vcrR
d2EwKQYDVR0RBCIwIIIPKi5tb2JpbGUtZ3cuY29tgg1tb2JpbGUtZ3cuY29tMA4G
A1UdDwEB/wQEAwIFoDAdBgNVHSUEFjAUBggrBgEFBQcDAQYIKwYBBQUHAwIwOgYD
VR0fBDMwMTAvoC2gK4YpaHR0cDovL2NkcC50aGF3dGUuY29tL1RoYXd0ZVJTQUNB
MjAxOC5jcmwwTAYDVR0gBEUwQzA3BglghkgBhv1sAQEwKjAoBggrBgEFBQcCARYc
aHR0cHM6Ly93d3cuZGlnaWNlcnQuY29tL0NQUzAIBgZngQwBAgIwbwYIKwYBBQUH
AQEEYzBhMCQGCCsGAQUFBzABhhhodHRwOi8vc3RhdHVzLnRoYXd0ZS5jb20wOQYI
KwYBBQUHMAKGLWh0dHA6Ly9jYWNlcnRzLnRoYXd0ZS5jb20vVGhhd3RlUlNBQ0Ey
MDE4LmNydDAJBgNVHRMEAjAAMIIBBAYKKwYBBAHWeQIEAgSB9QSB8gDwAHYApLkJ
kLQYWBSHuxOizGdwCjw1mAT5G9+443fNDsgN3BAAAAFiLwMsHgAABAMARzBFAiEA
wr1I3GqvQpI+rjM+hA6EhUzJQm4ARwixUf/2CtqHD48CIBV2uO/KhLX9RYGzfh/s
pcUWx5PcT6i5XpgH6QliYZwOAHYAb1N2rDHwMRnYmQCkURX/dxUcEdkCwQApBo2y
CJo32RMAAAFiLwMtlAAABAMARzBFAiEA987nF1ehANN+U3UO+x5ffzxpIF5LIeXG
D42wj3tKVwcCIBJJ0EqclIi4nkuW/5GjMThxIxGP47ACNRaTNmQvOpZwMA0GCSqG
SIb3DQEBCwUAA4IBAQCBLEx3UVSeFQ4wLKHdOGGdsfJidMooTT88BMh/aZq2yLYx
DkJqxPEq53y6kzA4tlRr8gf6wVJXnyUotOICrMwItvtWmV8QdjXbCTH/EvO1QXOm
M/qAQ3Z/gGhhXjQlUNfjgTSbUFpYCv230J0dV+suhKTuiFb01PbqLVwws6htlfaM
1fvZ5thOYKStDDgbfh3aeAPAPjda8rBIo7rZaGpssTG5/wZiLs3T6Po219v8zTwz
eofA2Z0W8HE6W+I5i0GAbdoZaKs/MIiD5BsFUiDSS81BUXNyhYDfWaKeEoux9kqa
QePJtyg/eRkU54+qBEz1NLpHQWFM8whXkyTZjuvZ
-----END CERTIFICATE-----
