This CA certificate is for verifying HTTPS connection to;
  - https://bulk.mobile-gw.com:9012/

Certificate:
    Data:
        Version: 3 (0x2)
        Serial Number:
            4d:5f:2c:34:08:b2:4c:20:cd:6d:50:7e:24:4d:c9:ec
        Signature Algorithm: sha1WithRSAEncryption
        Issuer: C=US, O=thawte, Inc., OU=Certification Services Division, OU=(c) 2006 thawte, Inc. - For authorized use only, CN=thawte Primary Root CA
        Validity
            Not Before: Feb  8 00:00:00 2010 GMT
            Not After : Feb  7 23:59:59 2020 GMT
        Subject: C=US, O=Thawte, Inc., CN=Thawte SSL CA
        Subject Public Key Info:
            Public Key Algorithm: rsaEncryption
            RSA Public Key: (2048 bit)
                Modulus (2048 bit):
                    00:99:e4:85:5b:76:49:7d:2f:05:d8:c5:ac:c8:c8:
                    a9:d3:dc:98:e6:d7:34:a6:2f:0c:f2:22:26:d8:a3:
                    c9:14:4c:8f:05:a4:45:e8:14:0c:58:90:05:1a:b7:
                    c5:c1:06:a5:80:af:bb:1d:49:6b:52:34:88:c3:59:
                    e7:ef:6b:c4:27:41:8c:2b:66:1d:d0:e0:a3:97:98:
                    19:34:4b:41:d5:98:d5:c7:05:ad:a2:e4:d7:ed:0c:
                    ad:4f:c1:b5:b0:21:fd:3e:50:53:b2:c4:90:d0:d4:
                    30:67:6c:9a:f1:0e:74:c4:c2:dc:8a:e8:97:ff:c9:
                    92:ae:01:8a:56:0a:98:32:b0:00:23:ec:90:1a:60:
                    c3:ed:bb:3a:cb:0f:63:9f:0d:44:c9:52:e1:25:96:
                    bf:ed:50:95:89:7f:56:14:b1:b7:61:1d:1c:07:8c:
                    3a:2c:f7:ff:80:de:39:45:d5:af:1a:d1:78:d8:c7:
                    71:6a:a3:19:a7:32:50:21:e9:f2:0e:a1:c6:13:03:
                    44:48:d1:66:a8:52:57:d7:11:b4:93:8b:e5:99:9f:
                    5d:e7:78:51:e5:4d:f6:b7:59:b4:76:b5:09:37:4d:
                    06:38:13:7a:1c:08:98:5c:c4:48:4a:cb:52:a0:a9:
                    f8:b1:9d:8e:7b:79:b0:20:2f:3c:96:a8:11:62:47:
                    bb:11
                Exponent: 65537 (0x10001)
        X509v3 extensions:
            Authority Information Access:
                OCSP - URI:http://ocsp.thawte.com

            X509v3 Basic Constraints: critical
                CA:TRUE, pathlen:0
            X509v3 CRL Distribution Points:
                URI:http://crl.thawte.com/ThawtePCA.crl

            X509v3 Key Usage: critical
                Certificate Sign, CRL Sign
            X509v3 Subject Alternative Name:
                DirName:/CN=VeriSignMPKI-2-9
            X509v3 Subject Key Identifier:
                A7:A2:83:BB:34:45:40:3D:FC:D5:30:4F:12:B9:3E:A1:01:9F:F6:DB
            X509v3 Authority Key Identifier:
                keyid:7B:5B:45:CF:AF:CE:CB:7A:FD:31:92:1A:6A:B6:F3:46:EB:57:48:50

    Signature Algorithm: sha1WithRSAEncryption
        80:22:80:e0:6c:c8:95:16:d7:57:26:87:f3:72:34:db:c6:72:
        56:27:3e:d3:96:f6:2e:25:91:a5:3e:33:97:a7:4b:e5:2f:fb:
        25:7d:2f:07:61:fa:6f:83:74:4c:4c:53:72:20:a4:7a:cf:51:
        51:56:81:88:b0:6d:1f:36:2c:c8:2b:b1:88:99:c1:fe:44:ab:
        48:51:7c:d8:f2:44:64:2a:d8:71:a7:fb:1a:2f:f9:19:8d:34:
        b2:23:bf:c4:4c:55:1d:8e:44:e8:aa:5d:9a:dd:9f:fd:03:c7:
        ba:24:43:8d:2d:47:44:db:f6:d8:98:c8:b2:f9:da:ef:ed:29:
        5c:69:12:fa:d1:23:96:0f:bf:9c:0d:f2:79:45:53:37:9a:56:
        2f:e8:57:10:70:f6:ee:89:0c:49:89:9a:c1:23:f5:c2:2a:cc:
        41:cf:22:ab:65:6e:b7:94:82:6d:2f:40:5f:58:de:eb:95:2b:
        a6:72:68:52:19:91:2a:ae:75:9d:4e:92:e6:ca:de:54:ea:18:
        ab:25:3c:e6:64:a6:79:1f:26:7d:61:ed:7d:d2:e5:71:55:d8:
        93:17:7c:14:38:30:3c:df:86:e3:4c:ad:49:e3:97:59:ce:1b:
        9b:2b:ce:dc:65:d4:0b:28:6b:4e:84:46:51:44:f7:33:08:2d:
        58:97:21:ae
-----BEGIN CERTIFICATE-----
MIIEbDCCA1SgAwIBAgIQTV8sNAiyTCDNbVB+JE3J7DANBgkqhkiG9w0BAQUFADCB
qTELMAkGA1UEBhMCVVMxFTATBgNVBAoTDHRoYXd0ZSwgSW5jLjEoMCYGA1UECxMf
Q2VydGlmaWNhdGlvbiBTZXJ2aWNlcyBEaXZpc2lvbjE4MDYGA1UECxMvKGMpIDIw
MDYgdGhhd3RlLCBJbmMuIC0gRm9yIGF1dGhvcml6ZWQgdXNlIG9ubHkxHzAdBgNV
BAMTFnRoYXd0ZSBQcmltYXJ5IFJvb3QgQ0EwHhcNMTAwMjA4MDAwMDAwWhcNMjAw
MjA3MjM1OTU5WjA8MQswCQYDVQQGEwJVUzEVMBMGA1UEChMMVGhhd3RlLCBJbmMu
MRYwFAYDVQQDEw1UaGF3dGUgU1NMIENBMIIBIjANBgkqhkiG9w0BAQEFAAOCAQ8A
MIIBCgKCAQEAmeSFW3ZJfS8F2MWsyMip09yY5tc0pi8M8iIm2KPJFEyPBaRF6BQM
WJAFGrfFwQalgK+7HUlrUjSIw1nn72vEJ0GMK2Yd0OCjl5gZNEtB1ZjVxwWtouTX
7QytT8G1sCH9PlBTssSQ0NQwZ2ya8Q50xMLciuiX/8mSrgGKVgqYMrAAI+yQGmDD
7bs6yw9jnw1EyVLhJZa/7VCViX9WFLG3YR0cB4w6LPf/gN45RdWvGtF42MdxaqMZ
pzJQIenyDqHGEwNESNFmqFJX1xG0k4vlmZ9d53hR5U32t1m0drUJN00GOBN6HAiY
XMRISstSoKn4sZ2Oe3mwIC88lqgRYke7EQIDAQABo4H7MIH4MDIGCCsGAQUFBwEB
BCYwJDAiBggrBgEFBQcwAYYWaHR0cDovL29jc3AudGhhd3RlLmNvbTASBgNVHRMB
Af8ECDAGAQH/AgEAMDQGA1UdHwQtMCswKaAnoCWGI2h0dHA6Ly9jcmwudGhhd3Rl
LmNvbS9UaGF3dGVQQ0EuY3JsMA4GA1UdDwEB/wQEAwIBBjAoBgNVHREEITAfpB0w
GzEZMBcGA1UEAxMQVmVyaVNpZ25NUEtJLTItOTAdBgNVHQ4EFgQUp6KDuzRFQD38
1TBPErk+oQGf9tswHwYDVR0jBBgwFoAUe1tFz6/Oy3r9MZIaarbzRutXSFAwDQYJ
KoZIhvcNAQEFBQADggEBAIAigOBsyJUW11cmh/NyNNvGclYnPtOW9i4lkaU+M5en
S+Uv+yV9Lwdh+m+DdExMU3IgpHrPUVFWgYiwbR82LMgrsYiZwf5Eq0hRfNjyRGQq
2HGn+xov+RmNNLIjv8RMVR2OROiqXZrdn/0Dx7okQ40tR0Tb9tiYyLL52u/tKVxp
EvrRI5YPv5wN8nlFUzeaVi/oVxBw9u6JDEmJmsEj9cIqzEHPIqtlbreUgm0vQF9Y
3uuVK6ZyaFIZkSqudZ1OkubK3lTqGKslPOZkpnkfJn1h7X3S5XFV2JMXfBQ4MDzf
huNMrUnjl1nOG5srztxl1Asoa06ERlFE9zMILViXIa4=
-----END CERTIFICATE-----
