Certificate:
    Data:
        Version: 3 (0x2)
        Serial Number:
            16:87:d6:88:6d:e2:30:06:85:23:3d:bf:11:bf:65:97
        Signature Algorithm: sha256WithRSAEncryption
        Issuer: C=US, O=thawte, Inc., OU=Certification Services Division, OU=(c) 2006 thawte, Inc. - For authorized use only, CN=thawte Primary Root CA
        Validity
            Not Before: Oct 31 00:00:00 2013 GMT
            Not After : Oct 30 23:59:59 2023 GMT
        Subject: C=US, O=thawte, Inc., CN=thawte SSL CA - G2
        Subject Public Key Info:
            Public Key Algorithm: rsaEncryption
            RSA Public Key: (2048 bit)
                Modulus (2048 bit):
                    00:b2:fc:06:fb:04:93:d2:ea:59:20:3b:44:85:97:
                    52:39:e7:10:f0:7a:e0:b0:94:40:da:46:f8:0c:28:
                    bb:b9:ce:60:38:3f:d2:d8:11:42:1b:91:ad:49:ee:
                    8f:c7:de:6c:de:37:6f:fd:8b:20:3c:6d:e7:74:d3:
                    dc:d5:24:88:41:80:89:ee:36:be:c4:d5:be:8d:53:
                    13:aa:e4:a5:b8:93:0a:be:ec:da:cd:3c:d4:32:56:
                    ef:d0:4e:a0:b8:97:bb:39:50:1e:6e:65:c3:fd:b2:
                    ce:e0:59:a9:48:09:c6:fe:be:ae:fc:3e:3b:81:20:
                    97:8b:8f:46:df:60:64:07:75:bb:1b:86:38:9f:47:
                    7b:34:ce:a1:d1:97:ad:76:d8:9f:b7:26:db:79:80:
                    36:48:f2:c5:37:f8:d9:32:ae:7c:a4:53:81:c7:99:
                    a1:54:38:2f:4f:75:a0:bb:5a:a5:bb:cd:ac:02:5b:
                    19:02:d5:13:18:a7:ce:ac:74:55:12:05:8b:9b:a2:
                    95:46:64:72:38:cd:5a:1b:3a:16:a7:be:71:99:8c:
                    54:03:b8:96:6c:01:d3:3e:06:98:3f:21:81:3b:02:
                    7e:00:47:53:01:1e:0e:46:43:fb:4b:2d:dc:0b:1a:
                    e8:2f:98:f8:7e:d1:99:ab:13:6c:a4:17:de:6f:f6:
                    15:f5
                Exponent: 65537 (0x10001)
        X509v3 extensions:
            X509v3 Basic Constraints: critical
                CA:TRUE, pathlen:0
            X509v3 Key Usage: critical
                Certificate Sign, CRL Sign
            X509v3 CRL Distribution Points:
                URI:http://t1.symcb.com/ThawtePCA.crl

            Authority Information Access:
                OCSP - URI:http://t2.symcb.com

            X509v3 Certificate Policies:
                Policy: 2.16.840.1.113733.1.7.54
                  CPS: https://www.thawte.com/cps

            X509v3 Subject Alternative Name:
                DirName:/CN=SymantecPKI-1-537
            X509v3 Subject Key Identifier:
                C2:4F:48:57:FC:D1:4F:9A:C0:5D:38:7D:0E:05:DB:D9:2E:B5:52:60
            X509v3 Authority Key Identifier:
                keyid:7B:5B:45:CF:AF:CE:CB:7A:FD:31:92:1A:6A:B6:F3:46:EB:57:48:50

    Signature Algorithm: sha256WithRSAEncryption
        8d:06:de:43:c9:76:02:ca:d9:23:97:5e:f3:63:d7:7d:44:c2:
        0f:6b:0a:f5:07:e5:8b:b8:fa:e0:a3:fa:6b:80:92:b5:03:2c:
        c5:37:e0:c2:e5:95:b5:92:70:18:28:42:94:ee:4b:77:6a:01:
        0f:8b:23:ec:56:4d:f4:00:69:e5:84:c8:e2:ea:de:5b:3e:f6:
        3c:07:3a:94:ca:6c:27:b1:cc:83:1a:60:71:27:d2:bf:02:f5:
        1e:44:d3:48:d5:a6:d3:76:21:00:9c:fa:98:64:eb:17:36:3f:
        eb:1b:3c:3e:a6:b1:d9:58:06:0e:72:d9:68:be:f1:a7:20:d7:
        52:e4:a4:77:1f:71:70:9d:55:35:85:37:e1:1d:4d:94:c2:70:
        7f:95:40:6e:4b:7d:b2:b4:29:2a:03:79:c8:b9:4c:67:61:04:
        a0:8b:27:ff:59:00:eb:55:7f:c6:b7:33:35:2d:5e:4e:ac:b8:
        ea:12:c5:e8:f7:b9:ab:be:74:92:2c:b7:d9:4d:ca:84:2f:1c:
        c2:f0:72:7c:b2:31:6e:cf:80:e5:88:07:36:51:7b:ba:61:af:
        6d:8d:23:5b:34:a3:95:bc:a2:31:7f:f2:f5:e7:b7:e8:ef:c4:
        b5:27:32:e9:f7:9e:69:c7:2b:e8:be:bb:0c:aa:e7:ea:60:12:
        ea:26:8a:78

-----BEGIN CERTIFICATE-----
MIIEsjCCA5qgAwIBAgIQFofWiG3iMAaFIz2/Eb9llzANBgkqhkiG9w0BAQsFADCB
qTELMAkGA1UEBhMCVVMxFTATBgNVBAoTDHRoYXd0ZSwgSW5jLjEoMCYGA1UECxMf
Q2VydGlmaWNhdGlvbiBTZXJ2aWNlcyBEaXZpc2lvbjE4MDYGA1UECxMvKGMpIDIw
MDYgdGhhd3RlLCBJbmMuIC0gRm9yIGF1dGhvcml6ZWQgdXNlIG9ubHkxHzAdBgNV
BAMTFnRoYXd0ZSBQcmltYXJ5IFJvb3QgQ0EwHhcNMTMxMDMxMDAwMDAwWhcNMjMx
MDMwMjM1OTU5WjBBMQswCQYDVQQGEwJVUzEVMBMGA1UEChMMdGhhd3RlLCBJbmMu
MRswGQYDVQQDExJ0aGF3dGUgU1NMIENBIC0gRzIwggEiMA0GCSqGSIb3DQEBAQUA
A4IBDwAwggEKAoIBAQCy/Ab7BJPS6lkgO0SFl1I55xDweuCwlEDaRvgMKLu5zmA4
P9LYEUIbka1J7o/H3mzeN2/9iyA8bed009zVJIhBgInuNr7E1b6NUxOq5KW4kwq+
7NrNPNQyVu/QTqC4l7s5UB5uZcP9ss7gWalICcb+vq78PjuBIJeLj0bfYGQHdbsb
hjifR3s0zqHRl6122J+3Jtt5gDZI8sU3+NkyrnykU4HHmaFUOC9PdaC7WqW7zawC
WxkC1RMYp86sdFUSBYubopVGZHI4zVobOhanvnGZjFQDuJZsAdM+Bpg/IYE7An4A
R1MBHg5GQ/tLLdwLGugvmPh+0ZmrE2ykF95v9hX1AgMBAAGjggE7MIIBNzASBgNV
HRMBAf8ECDAGAQH/AgEAMA4GA1UdDwEB/wQEAwIBBjAyBgNVHR8EKzApMCegJaAj
hiFodHRwOi8vdDEuc3ltY2IuY29tL1RoYXd0ZVBDQS5jcmwwLwYIKwYBBQUHAQEE
IzAhMB8GCCsGAQUFBzABhhNodHRwOi8vdDIuc3ltY2IuY29tMEEGA1UdIAQ6MDgw
NgYKYIZIAYb4RQEHNjAoMCYGCCsGAQUFBwIBFhpodHRwczovL3d3dy50aGF3dGUu
Y29tL2NwczApBgNVHREEIjAgpB4wHDEaMBgGA1UEAxMRU3ltYW50ZWNQS0ktMS01
MzcwHQYDVR0OBBYEFMJPSFf80U+awF04fQ4F29kutVJgMB8GA1UdIwQYMBaAFHtb
Rc+vzst6/TGSGmq280brV0hQMA0GCSqGSIb3DQEBCwUAA4IBAQCNBt5DyXYCytkj
l17zY9d9RMIPawr1B+WLuPrgo/prgJK1AyzFN+DC5ZW1knAYKEKU7kt3agEPiyPs
Vk30AGnlhMji6t5bPvY8BzqUymwnscyDGmBxJ9K/AvUeRNNI1abTdiEAnPqYZOsX
Nj/rGzw+prHZWAYOctlovvGnINdS5KR3H3FwnVU1hTfhHU2UwnB/lUBuS32ytCkq
A3nIuUxnYQSgiyf/WQDrVX/GtzM1LV5OrLjqEsXo97mrvnSSLLfZTcqELxzC8HJ8
sjFuz4DliAc2UXu6Ya9tjSNbNKOVvKIxf/L157fo78S1JzLp955pxyvovrsMqufq
YBLqJop4
-----END CERTIFICATE-----
